Certificate:
    Data:
        Version: 3 (0x2)
        Serial Number:
            5a:ca:20:e0:a8:f8:8a:f3:81:2b:98:fa:b4:e5:22:72
        Signature Algorithm: sha256WithRSAEncryption
        Issuer: CN=sverdlova-ca
        Validity
            Not Before: Aug  2 13:55:40 2019 GMT
            Not After : Jul 17 13:55:40 2022 GMT
        Subject: CN=sverdlova
        Subject Public Key Info:
            Public Key Algorithm: rsaEncryption
                RSA Public-Key: (2048 bit)
                Modulus:
                    00:af:8d:36:01:d0:50:9f:19:b2:75:b9:e9:ef:38:
                    63:f9:62:22:37:d3:6e:a2:14:f3:2d:5c:90:5e:c4:
                    fd:5e:d4:2c:35:3a:01:f1:57:5f:8a:b9:c9:09:95:
                    47:ee:b5:d4:df:0b:03:5a:18:fc:e5:27:4e:3e:5e:
                    3e:16:9e:ad:10:77:c6:55:47:91:06:31:c9:e7:d1:
                    a5:cd:fd:28:d3:b1:04:9b:3f:03:41:35:93:a7:1f:
                    9a:df:a2:bc:01:5b:ba:65:bf:0c:d1:56:ee:a7:6b:
                    d3:e3:24:0f:d2:a9:51:fd:4c:5f:e6:7c:fb:58:6b:
                    6c:05:7a:fe:a9:0a:2d:8b:09:36:e0:6e:94:8e:44:
                    8c:3c:41:7b:78:f5:29:50:d2:73:e9:7d:dd:8d:d6:
                    26:5f:09:de:06:f9:63:a4:4a:2e:06:bb:3d:1a:0f:
                    73:61:6d:70:1c:b3:2e:9e:4c:44:b7:e3:2d:84:f2:
                    e2:ef:e2:a8:34:63:82:11:05:48:ab:44:6e:57:b4:
                    2b:0b:11:28:1a:e2:33:d5:f7:e3:94:d7:43:c5:89:
                    d1:c3:82:2b:c9:d6:d9:af:ed:ab:a4:57:11:7e:e7:
                    6b:46:ad:4f:a7:b1:07:21:8f:ba:a7:41:4a:e6:63:
                    56:1b:5e:21:35:d8:02:55:4b:30:61:89:e2:93:87:
                    41:37
                Exponent: 65537 (0x10001)
        X509v3 extensions:
            X509v3 Basic Constraints: 
                CA:FALSE
            X509v3 Subject Key Identifier: 
                6B:AF:50:F5:C4:D6:34:FB:13:EF:42:CE:C7:59:7E:1C:E5:88:FC:99
            X509v3 Authority Key Identifier: 
                keyid:15:4F:2B:43:E3:99:20:73:92:F5:83:DD:32:03:96:C9:9C:D2:C3:0B
                DirName:/CN=sverdlova-ca
                serial:72:FF:D8:3B:FB:92:50:54:C3:94:DA:BA:13:5B:22:FB:51:D0:C5:44

            X509v3 Extended Key Usage: 
                TLS Web Server Authentication
            X509v3 Key Usage: 
                Digital Signature, Key Encipherment
            X509v3 Subject Alternative Name: 
                DNS:sverdlova
    Signature Algorithm: sha256WithRSAEncryption
         a1:16:26:6f:da:c9:e4:6c:3f:4e:06:04:27:d5:c9:c3:bf:79:
         8e:b2:46:39:1e:c0:7c:b7:bc:f3:c3:9a:c6:62:15:27:2a:60:
         36:ee:98:a3:db:de:c0:fa:f0:bc:16:3f:2e:d6:05:1f:14:98:
         cd:d0:bf:a4:1c:4a:f2:c4:8c:77:18:b3:f6:19:d9:e5:13:a0:
         22:20:44:92:09:74:0b:27:b0:a8:b1:f5:1d:e6:e9:0d:8a:d4:
         d2:48:2d:b4:f2:fe:41:56:7f:ce:96:7c:b7:03:2f:a7:15:87:
         73:c1:69:0d:42:09:f9:b3:1e:1b:e7:61:8a:08:87:d9:3a:13:
         ad:c2:51:ae:9e:51:d8:76:b5:bd:17:ef:7d:ba:ce:06:2b:99:
         00:fd:8b:85:ab:19:d1:a9:f1:e3:ca:e0:26:f5:e6:ac:ad:6b:
         e2:9e:8c:5e:c9:03:5b:68:28:f6:dc:26:dc:4d:99:3e:20:37:
         2a:81:15:bd:44:d4:d2:d8:51:e8:88:70:0a:03:6c:bc:cb:ab:
         cd:02:4d:09:04:e5:bd:7c:c5:74:a4:e3:4f:36:cd:8b:3e:e5:
         d4:13:60:09:4b:37:6b:85:7a:3d:90:65:be:fe:9b:9b:78:e3:
         4f:e7:7c:76:f5:61:bf:5a:52:b9:c8:9e:20:f7:d0:67:60:b4:
         5b:33:7a:09
-----BEGIN CERTIFICATE-----
MIIDbzCCAlegAwIBAgIQWsog4Kj4ivOBK5j6tOUicjANBgkqhkiG9w0BAQsFADAX
MRUwEwYDVQQDDAxzdmVyZGxvdmEtY2EwHhcNMTkwODAyMTM1NTQwWhcNMjIwNzE3
MTM1NTQwWjAUMRIwEAYDVQQDDAlzdmVyZGxvdmEwggEiMA0GCSqGSIb3DQEBAQUA
A4IBDwAwggEKAoIBAQCvjTYB0FCfGbJ1uenvOGP5YiI3026iFPMtXJBexP1e1Cw1
OgHxV1+KuckJlUfutdTfCwNaGPzlJ04+Xj4Wnq0Qd8ZVR5EGMcnn0aXN/SjTsQSb
PwNBNZOnH5rforwBW7plvwzRVu6na9PjJA/SqVH9TF/mfPtYa2wFev6pCi2LCTbg
bpSORIw8QXt49SlQ0nPpfd2N1iZfCd4G+WOkSi4Guz0aD3NhbXAcsy6eTES34y2E
8uLv4qg0Y4IRBUirRG5XtCsLESga4jPV9+OU10PFidHDgivJ1tmv7aukVxF+52tG
rU+nsQchj7qnQUrmY1YbXiE12AJVSzBhieKTh0E3AgMBAAGjgbkwgbYwCQYDVR0T
BAIwADAdBgNVHQ4EFgQUa69Q9cTWNPsT70LOx1l+HOWI/JkwUgYDVR0jBEswSYAU
FU8rQ+OZIHOS9YPdMgOWyZzSwwuhG6QZMBcxFTATBgNVBAMMDHN2ZXJkbG92YS1j
YYIUcv/YO/uSUFTDlNq6E1si+1HQxUQwEwYDVR0lBAwwCgYIKwYBBQUHAwEwCwYD
VR0PBAQDAgWgMBQGA1UdEQQNMAuCCXN2ZXJkbG92YTANBgkqhkiG9w0BAQsFAAOC
AQEAoRYmb9rJ5Gw/TgYEJ9XJw795jrJGOR7AfLe888OaxmIVJypgNu6Yo9vewPrw
vBY/LtYFHxSYzdC/pBxK8sSMdxiz9hnZ5ROgIiBEkgl0CyewqLH1HebpDYrU0kgt
tPL+QVZ/zpZ8twMvpxWHc8FpDUIJ+bMeG+dhigiH2ToTrcJRrp5R2Ha1vRfvfbrO
BiuZAP2LhasZ0anx48rgJvXmrK1r4p6MXskDW2go9twm3E2ZPiA3KoEVvUTU0thR
6IhwCgNsvMurzQJNCQTlvXzFdKTjTzbNiz7l1BNgCUs3a4V6PZBlvv6bm3jjT+d8
dvVhv1pSucieIPfQZ2C0WzN6CQ==
-----END CERTIFICATE-----
