Certificate:
    Data:
        Version: 3 (0x2)
        Serial Number:
            e9:a7:7b:b2:c4:a8:9a:74:34:40:fd:68:77:bb:9e:a8
        Signature Algorithm: sha256WithRSAEncryption
        Issuer: CN=sverdlova-ca
        Validity
            Not Before: Aug  2 13:55:56 2019 GMT
            Not After : Jul 17 13:55:56 2022 GMT
        Subject: CN=danilevskii
        Subject Public Key Info:
            Public Key Algorithm: rsaEncryption
                RSA Public-Key: (2048 bit)
                Modulus:
                    00:bf:fa:b2:bb:08:e5:cb:6e:cd:ef:26:c4:35:a9:
                    3f:e0:60:39:bc:4e:7d:9a:46:3d:cb:58:2e:96:44:
                    85:0a:d5:31:95:9e:0d:4f:7b:74:0b:1a:c0:4b:f3:
                    eb:cb:14:bf:51:8c:c8:51:9a:15:f3:77:c9:47:6b:
                    ce:dd:5a:4d:f5:51:39:95:c1:d8:b3:8d:ee:63:c2:
                    19:99:c5:a2:bc:5e:23:0b:26:cd:00:b9:64:56:20:
                    2b:22:b3:cc:2f:12:55:cb:59:71:7d:bc:dc:54:7e:
                    c4:15:c7:28:e5:aa:f4:2e:3d:f0:57:13:63:53:ce:
                    3b:ca:26:2e:75:27:1d:ef:3f:0d:8b:a2:4a:25:20:
                    ec:71:70:57:a9:b7:c5:07:c7:be:53:13:b8:3a:26:
                    90:1b:d4:d0:20:66:d1:27:26:a9:8b:b4:83:47:68:
                    d0:37:85:67:91:ad:31:84:f2:83:5d:d5:51:fc:9e:
                    49:02:8e:29:80:cd:77:d9:54:e7:7a:fd:a5:7b:20:
                    08:29:c8:fb:f3:54:ad:2d:a6:3d:b4:c9:bd:73:75:
                    df:0a:b2:7d:4a:b2:1f:df:8f:bd:05:29:8f:18:b8:
                    8b:24:48:84:23:04:f0:ba:09:67:5d:68:cd:2b:f7:
                    1b:6a:6b:70:e7:13:cb:8f:b1:53:d0:d4:63:b0:d0:
                    dc:69
                Exponent: 65537 (0x10001)
        X509v3 extensions:
            X509v3 Basic Constraints: 
                CA:FALSE
            X509v3 Subject Key Identifier: 
                78:1F:A4:34:6C:55:3E:47:0F:CA:84:51:CD:E6:A3:2A:67:65:3D:6D
            X509v3 Authority Key Identifier: 
                keyid:15:4F:2B:43:E3:99:20:73:92:F5:83:DD:32:03:96:C9:9C:D2:C3:0B
                DirName:/CN=sverdlova-ca
                serial:72:FF:D8:3B:FB:92:50:54:C3:94:DA:BA:13:5B:22:FB:51:D0:C5:44

            X509v3 Extended Key Usage: 
                TLS Web Client Authentication
            X509v3 Key Usage: 
                Digital Signature
    Signature Algorithm: sha256WithRSAEncryption
         9c:43:5b:2b:49:03:32:4f:c3:ad:b5:cb:46:69:de:20:d1:60:
         22:34:02:b0:a0:37:bc:0a:3f:0a:84:b1:e0:7f:6f:a9:92:b1:
         80:58:d1:69:50:07:61:ae:10:f5:bd:65:22:8e:31:14:93:4c:
         bf:11:1b:fa:3d:29:2a:44:a7:0b:94:4e:72:41:cb:13:d1:74:
         1f:61:a6:4b:2a:35:f7:9b:5f:2d:69:11:97:1c:9a:c2:46:f6:
         6e:c1:00:3a:05:7a:43:d8:c0:b5:ba:46:c6:f8:58:69:fc:f4:
         0b:e6:7f:80:d0:08:b4:d2:99:d1:c3:4b:dd:2e:0c:ca:7c:6c:
         9b:4f:5d:fe:8d:7e:c9:9e:f7:35:56:5d:fe:f1:8d:ed:49:e9:
         69:37:bf:86:06:4c:f1:e2:3e:90:07:ee:84:6e:6c:3a:82:1f:
         d9:af:d5:63:af:c9:de:bb:eb:c5:e9:51:95:13:01:71:f2:9b:
         92:18:0e:ee:a9:8c:60:d6:35:68:c1:1d:45:7f:89:e3:4e:87:
         78:48:0c:a2:54:4e:62:3d:17:7b:2a:d7:ab:8a:e9:49:b9:7e:
         94:f7:69:1f:aa:84:ae:bb:2b:bd:d4:3f:a1:ea:bb:65:19:6e:
         06:3b:0a:b2:96:4a:4a:e6:82:0f:0c:21:07:99:e3:aa:89:a9:
         ed:49:12:d6
-----BEGIN CERTIFICATE-----
MIIDXDCCAkSgAwIBAgIRAOmne7LEqJp0NED9aHe7nqgwDQYJKoZIhvcNAQELBQAw
FzEVMBMGA1UEAwwMc3ZlcmRsb3ZhLWNhMB4XDTE5MDgwMjEzNTU1NloXDTIyMDcx
NzEzNTU1NlowFjEUMBIGA1UEAwwLZGFuaWxldnNraWkwggEiMA0GCSqGSIb3DQEB
AQUAA4IBDwAwggEKAoIBAQC/+rK7COXLbs3vJsQ1qT/gYDm8Tn2aRj3LWC6WRIUK
1TGVng1Pe3QLGsBL8+vLFL9RjMhRmhXzd8lHa87dWk31UTmVwdizje5jwhmZxaK8
XiMLJs0AuWRWICsis8wvElXLWXF9vNxUfsQVxyjlqvQuPfBXE2NTzjvKJi51Jx3v
Pw2LokolIOxxcFept8UHx75TE7g6JpAb1NAgZtEnJqmLtINHaNA3hWeRrTGE8oNd
1VH8nkkCjimAzXfZVOd6/aV7IAgpyPvzVK0tpj20yb1zdd8Ksn1Ksh/fj70FKY8Y
uIskSIQjBPC6CWddaM0r9xtqa3DnE8uPsVPQ1GOw0NxpAgMBAAGjgaMwgaAwCQYD
VR0TBAIwADAdBgNVHQ4EFgQUeB+kNGxVPkcPyoRRzeajKmdlPW0wUgYDVR0jBEsw
SYAUFU8rQ+OZIHOS9YPdMgOWyZzSwwuhG6QZMBcxFTATBgNVBAMMDHN2ZXJkbG92
YS1jYYIUcv/YO/uSUFTDlNq6E1si+1HQxUQwEwYDVR0lBAwwCgYIKwYBBQUHAwIw
CwYDVR0PBAQDAgeAMA0GCSqGSIb3DQEBCwUAA4IBAQCcQ1srSQMyT8OttctGad4g
0WAiNAKwoDe8Cj8KhLHgf2+pkrGAWNFpUAdhrhD1vWUijjEUk0y/ERv6PSkqRKcL
lE5yQcsT0XQfYaZLKjX3m18taRGXHJrCRvZuwQA6BXpD2MC1ukbG+Fhp/PQL5n+A
0Ai00pnRw0vdLgzKfGybT13+jX7Jnvc1Vl3+8Y3tSelpN7+GBkzx4j6QB+6Ebmw6
gh/Zr9Vjr8neu+vF6VGVEwFx8puSGA7uqYxg1jVowR1Ff4njTod4SAyiVE5iPRd7
KteriulJuX6U92kfqoSuuyu91D+h6rtlGW4GOwqylkpK5oIPDCEHmeOqiantSRLW
-----END CERTIFICATE-----
