Certificate:
    Data:
        Version: 3 (0x2)
        Serial Number:
            08:9b:10:e4:f3:4d:f0:ea:aa:d2:1d:a0:49:03:c2:d3
        Signature Algorithm: sha256WithRSAEncryption
        Issuer: CN=sverdlova-ca
        Validity
            Not Before: Aug  2 13:56:01 2019 GMT
            Not After : Jul 17 13:56:01 2022 GMT
        Subject: CN=spb
        Subject Public Key Info:
            Public Key Algorithm: rsaEncryption
                RSA Public-Key: (2048 bit)
                Modulus:
                    00:b1:42:3c:ef:62:b7:ac:cd:da:ff:19:d4:4b:4d:
                    f3:21:f5:c8:48:58:8f:7b:7a:95:d8:36:4b:af:43:
                    5f:fe:77:78:10:30:e5:96:69:c4:a7:17:55:87:20:
                    86:c5:9e:1b:77:a9:2d:08:f2:02:6b:8c:65:d4:88:
                    24:0f:68:04:fa:1b:ef:8a:36:7b:00:93:76:f9:5b:
                    3a:f8:d5:51:0b:65:4b:1f:6d:76:08:c5:6f:7f:34:
                    91:d9:62:bc:21:3e:a6:d8:7b:8b:b1:cc:2f:1d:47:
                    77:72:be:f3:a9:60:fa:c8:b6:1b:da:ea:7a:32:a4:
                    d9:a7:f5:8f:79:7b:38:1a:c8:72:a6:9e:8e:a3:90:
                    c3:fa:ef:a2:29:dd:b1:23:03:12:15:67:6d:d1:67:
                    1c:d3:70:0c:54:63:6f:69:77:74:d8:0c:c6:74:46:
                    1e:7a:32:2b:a5:04:57:ed:e5:ca:0c:29:cf:58:1d:
                    7c:1d:6c:d5:7c:59:9f:74:75:8b:cb:43:dd:2c:47:
                    bc:0b:c3:00:7e:2d:52:a9:cc:58:43:75:3c:9c:cb:
                    2c:82:c5:78:63:c1:c6:59:ac:ac:26:ec:81:29:19:
                    d7:85:34:82:b2:ff:5a:33:96:7f:d9:1c:ac:95:7d:
                    11:d7:30:52:a8:43:ec:5c:68:01:a8:60:df:63:78:
                    f7:b1
                Exponent: 65537 (0x10001)
        X509v3 extensions:
            X509v3 Basic Constraints: 
                CA:FALSE
            X509v3 Subject Key Identifier: 
                31:E5:4A:38:76:8D:1F:26:C5:7F:BD:2B:0F:FC:0D:13:03:A3:7E:9B
            X509v3 Authority Key Identifier: 
                keyid:15:4F:2B:43:E3:99:20:73:92:F5:83:DD:32:03:96:C9:9C:D2:C3:0B
                DirName:/CN=sverdlova-ca
                serial:72:FF:D8:3B:FB:92:50:54:C3:94:DA:BA:13:5B:22:FB:51:D0:C5:44

            X509v3 Extended Key Usage: 
                TLS Web Client Authentication
            X509v3 Key Usage: 
                Digital Signature
    Signature Algorithm: sha256WithRSAEncryption
         45:87:67:da:45:1f:36:38:be:29:8c:c7:96:06:c6:bf:6c:31:
         6a:74:13:be:57:fb:3a:51:a7:30:b0:2b:c8:41:ff:e9:89:c2:
         a6:9b:e5:12:61:16:b2:d5:67:ab:b4:84:72:28:b4:04:aa:be:
         cd:35:8e:b8:cd:84:76:70:70:b7:93:6f:7e:9d:6a:e2:52:87:
         54:7d:58:b1:11:e5:90:18:9e:33:75:fa:ea:85:4c:2a:92:36:
         ce:4d:bc:1e:d6:28:59:d0:f1:71:70:d2:1b:17:b2:00:93:ea:
         70:19:bf:ff:8d:8f:c0:93:31:d6:da:6e:8e:2a:2f:3b:1e:79:
         78:a6:ae:28:d2:64:68:b2:91:3b:ae:e4:cf:b0:b9:b5:a5:d3:
         ad:bc:fc:53:5f:16:65:08:cd:ea:41:79:fb:6d:f1:38:d1:d6:
         2a:bc:e0:3e:82:35:9c:09:87:77:12:8a:04:47:ff:ec:fd:e0:
         58:5a:63:ee:c2:14:f0:7a:87:8b:7d:68:27:aa:e8:6d:3e:65:
         5a:6a:6e:62:7a:6c:7a:1e:48:e8:69:a7:45:d4:1e:70:42:47:
         67:2c:f9:2a:06:78:22:b1:c3:77:b0:1c:2a:38:5f:ca:2b:b6:
         86:cd:3b:ec:e5:b5:11:4c:1f:ff:5e:67:38:bb:98:b2:5c:da:
         74:ad:cd:48
-----BEGIN CERTIFICATE-----
MIIDUzCCAjugAwIBAgIQCJsQ5PNN8Oqq0h2gSQPC0zANBgkqhkiG9w0BAQsFADAX
MRUwEwYDVQQDDAxzdmVyZGxvdmEtY2EwHhcNMTkwODAyMTM1NjAxWhcNMjIwNzE3
MTM1NjAxWjAOMQwwCgYDVQQDDANzcGIwggEiMA0GCSqGSIb3DQEBAQUAA4IBDwAw
ggEKAoIBAQCxQjzvYreszdr/GdRLTfMh9chIWI97epXYNkuvQ1/+d3gQMOWWacSn
F1WHIIbFnht3qS0I8gJrjGXUiCQPaAT6G++KNnsAk3b5Wzr41VELZUsfbXYIxW9/
NJHZYrwhPqbYe4uxzC8dR3dyvvOpYPrIthva6noypNmn9Y95ezgayHKmno6jkMP6
76Ip3bEjAxIVZ23RZxzTcAxUY29pd3TYDMZ0Rh56MiulBFft5coMKc9YHXwdbNV8
WZ90dYvLQ90sR7wLwwB+LVKpzFhDdTycyyyCxXhjwcZZrKwm7IEpGdeFNIKy/1oz
ln/ZHKyVfRHXMFKoQ+xcaAGoYN9jePexAgMBAAGjgaMwgaAwCQYDVR0TBAIwADAd
BgNVHQ4EFgQUMeVKOHaNHybFf70rD/wNEwOjfpswUgYDVR0jBEswSYAUFU8rQ+OZ
IHOS9YPdMgOWyZzSwwuhG6QZMBcxFTATBgNVBAMMDHN2ZXJkbG92YS1jYYIUcv/Y
O/uSUFTDlNq6E1si+1HQxUQwEwYDVR0lBAwwCgYIKwYBBQUHAwIwCwYDVR0PBAQD
AgeAMA0GCSqGSIb3DQEBCwUAA4IBAQBFh2faRR82OL4pjMeWBsa/bDFqdBO+V/s6
UacwsCvIQf/picKmm+USYRay1WertIRyKLQEqr7NNY64zYR2cHC3k29+nWriUodU
fVixEeWQGJ4zdfrqhUwqkjbOTbwe1ihZ0PFxcNIbF7IAk+pwGb//jY/AkzHW2m6O
Ki87Hnl4pq4o0mRospE7ruTPsLm1pdOtvPxTXxZlCM3qQXn7bfE40dYqvOA+gjWc
CYd3EooER//s/eBYWmPuwhTweoeLfWgnquhtPmVaam5iemx6HkjoaadF1B5wQkdn
LPkqBngiscN3sBwqOF/KK7aGzTvs5bURTB//Xmc4u5iyXNp0rc1I
-----END CERTIFICATE-----
